; Function Attrs: mustprogress nofree norecurse nosync nounwind willreturn memory(none) uwtable
define noundef i64 @_ZN4base13time_internal12SaturatedSubENS_9TimeDeltaEl(i64 %0, i64 noundef %1) local_unnamed_addr #0 {
  %3 = sub i64 %0, %1
  %4 = xor i64 %3, %0
  %5 = xor i64 %1, %0
  %6 = and i64 %4, %5
  %7 = icmp sgt i64 %3, -1
  %.inv = icmp slt i64 %6, 0
  %spec.select.i = select i1 %7, i64 -9223372036854775807, i64 9223372036854775807
  %.03.i = select i1 %.inv, i64 %spec.select.i, i64 %3
  ret i64 %.03.i
}